; Function Attrs: nounwind uwtable
define internal void @php_libxml_structured_error_handler(ptr nocapture readnone %0, ptr noundef %1) #0 {
  %3 = alloca %struct._xmlError, align 8
  call void @llvm.lifetime.start.p0(i64 88, ptr nonnull %3)
  call void @llvm.memset.p0.i64(ptr noundef nonnull align 8 dereferenceable(88) %3, i8 0, i64 88, i1 false)
  %.not.i = icmp eq ptr %1, null
  br i1 %.not.i, label %.critedge.i, label %4

4:                                                ; preds = %2
  %5 = call i32 @xmlCopyError(ptr noundef nonnull %1, ptr noundef nonnull %3) #17
  %6 = icmp eq i32 %5, 0
  br i1 %6, label %13, label %_php_list_set_error_structure.exit

.critedge.i:                                      ; preds = %2
  %7 = getelementptr inbounds i8, ptr %3, i64 4
  store i32 1, ptr %7, align 4
  %8 = getelementptr inbounds i8, ptr %3, i64 16
  store i32 2, ptr %8, align 8
  %9 = getelementptr inbounds i8, ptr %3, i64 32
  store i32 0, ptr %9, align 8
  %10 = getelementptr inbounds i8, ptr %3, i64 68
  store i32 0, ptr %10, align 4
  %11 = tail call ptr @xmlStrdup(ptr noundef null) #17
  %12 = getelementptr inbounds i8, ptr %3, i64 8
  store ptr %11, ptr %12, align 8
  br label %13

13:                                               ; preds = %.critedge.i, %4
  %14 = load ptr, ptr getelementptr inbounds (%struct._zend_libxml_globals, ptr @libxml_globals, i64 0, i32 2), align 8
  call void @zend_llist_add_element(ptr noundef %14, ptr noundef nonnull %3) #17
  br label %_php_list_set_error_structure.exit

_php_list_set_error_structure.exit:               ; preds = %4, %13
  call void @llvm.lifetime.end.p0(i64 88, ptr nonnull %3)
  ret void
}